target datalayout = "e-m:e-p270:32:32-p271:32:32-p272:64:64-i64:64-i128:128-f80:128-n8:16:32:64-S128"
target triple = "x86_64-pc-linux-gnu"

; Function Attrs: mustprogress uwtable
define void @_Z8RGBtoHSLhhhPhS_S_(i8 noundef zeroext %0, i8 noundef zeroext %1, i8 noundef zeroext %2, ptr noundef %3, ptr noundef %4, ptr noundef %5) #4 {
  %7 = alloca i8, align 1
  %8 = alloca i8, align 1
  %9 = alloca i8, align 1
  %10 = alloca ptr, align 8
  %11 = alloca ptr, align 8
  %12 = alloca ptr, align 8
  %13 = alloca i32, align 4
  %14 = alloca i32, align 4
  %15 = alloca i32, align 4
  %16 = alloca i32, align 4
  %17 = alloca i32, align 4
  %18 = alloca i32, align 4
  %19 = alloca i32, align 4
  %20 = alloca i32, align 4
  %21 = alloca i32, align 4
  %22 = alloca i32, align 4
  %23 = alloca i32, align 4
  store i8 %0, ptr %7, align 1, !tbaa !86
  store i8 %1, ptr %8, align 1, !tbaa !86
  store i8 %2, ptr %9, align 1, !tbaa !86
  store ptr %3, ptr %10, align 8, !tbaa !3
  store ptr %4, ptr %11, align 8, !tbaa !3
  store ptr %5, ptr %12, align 8, !tbaa !3
  call void @llvm.lifetime.start.p0(i64 4, ptr %13) #3
  call void @llvm.lifetime.start.p0(i64 4, ptr %14) #3
  %24 = load i8, ptr %7, align 1, !tbaa !86
  %25 = zext i8 %24 to i32
  store i32 %25, ptr %14, align 4, !tbaa !57
  call void @llvm.lifetime.start.p0(i64 4, ptr %15) #3
  %26 = load i8, ptr %8, align 1, !tbaa !86
  %27 = zext i8 %26 to i32
  store i32 %27, ptr %15, align 4, !tbaa !57
  call void @llvm.lifetime.start.p0(i64 4, ptr %16) #3
  %28 = load i8, ptr %9, align 1, !tbaa !86
  %29 = zext i8 %28 to i32
  store i32 %29, ptr %16, align 4, !tbaa !57
  %30 = call noundef nonnull align 4 dereferenceable(4) ptr @_ZSt3maxIiERKT_S2_S2_(ptr noundef nonnull align 4 dereferenceable(4) %15, ptr noundef nonnull align 4 dereferenceable(4) %16)
  %31 = call noundef nonnull align 4 dereferenceable(4) ptr @_ZSt3maxIiERKT_S2_S2_(ptr noundef nonnull align 4 dereferenceable(4) %14, ptr noundef nonnull align 4 dereferenceable(4) %30)
  %32 = load i32, ptr %31, align 4, !tbaa !57
  call void @llvm.lifetime.end.p0(i64 4, ptr %16) #3
  call void @llvm.lifetime.end.p0(i64 4, ptr %15) #3
  call void @llvm.lifetime.end.p0(i64 4, ptr %14) #3
  store i32 %32, ptr %13, align 4, !tbaa !57
  call void @llvm.lifetime.start.p0(i64 4, ptr %17) #3
  call void @llvm.lifetime.start.p0(i64 4, ptr %18) #3
  %33 = load i8, ptr %7, align 1, !tbaa !86
  %34 = zext i8 %33 to i32
  store i32 %34, ptr %18, align 4, !tbaa !57
  call void @llvm.lifetime.start.p0(i64 4, ptr %19) #3
  %35 = load i8, ptr %8, align 1, !tbaa !86
  %36 = zext i8 %35 to i32
  store i32 %36, ptr %19, align 4, !tbaa !57
  call void @llvm.lifetime.start.p0(i64 4, ptr %20) #3
  %37 = load i8, ptr %9, align 1, !tbaa !86
  %38 = zext i8 %37 to i32
  store i32 %38, ptr %20, align 4, !tbaa !57
  %39 = call noundef nonnull align 4 dereferenceable(4) ptr @_ZSt3minIiERKT_S2_S2_(ptr noundef nonnull align 4 dereferenceable(4) %19, ptr noundef nonnull align 4 dereferenceable(4) %20)
  %40 = call noundef nonnull align 4 dereferenceable(4) ptr @_ZSt3minIiERKT_S2_S2_(ptr noundef nonnull align 4 dereferenceable(4) %18, ptr noundef nonnull align 4 dereferenceable(4) %39)
  %41 = load i32, ptr %40, align 4, !tbaa !57
  call void @llvm.lifetime.end.p0(i64 4, ptr %20) #3
  call void @llvm.lifetime.end.p0(i64 4, ptr %19) #3
  call void @llvm.lifetime.end.p0(i64 4, ptr %18) #3
  store i32 %41, ptr %17, align 4, !tbaa !57
  %42 = load i32, ptr %17, align 4, !tbaa !57
  %43 = load i32, ptr %13, align 4, !tbaa !57
  %44 = icmp eq i32 %42, %43
  br i1 %44, label %45, label %50

45:                                               ; preds = %6
  %46 = load ptr, ptr %11, align 8, !tbaa !3
  store i8 0, ptr %46, align 1, !tbaa !86
  %47 = load ptr, ptr %10, align 8, !tbaa !3
  store i8 0, ptr %47, align 1, !tbaa !86
  %48 = load i8, ptr %7, align 1, !tbaa !86
  %49 = load ptr, ptr %12, align 8, !tbaa !3
  store i8 %48, ptr %49, align 1, !tbaa !86
  br label %124

50:                                               ; preds = %6
  call void @llvm.lifetime.start.p0(i64 4, ptr %21) #3
  %51 = load i32, ptr %17, align 4, !tbaa !57
  %52 = load i32, ptr %13, align 4, !tbaa !57
  %53 = add nsw i32 %51, %52
  store i32 %53, ptr %21, align 4, !tbaa !57
  call void @llvm.lifetime.start.p0(i64 4, ptr %22) #3
  %54 = load i32, ptr %13, align 4, !tbaa !57
  %55 = load i32, ptr %17, align 4, !tbaa !57
  %56 = sub nsw i32 %54, %55
  store i32 %56, ptr %22, align 4, !tbaa !57
  %57 = load i32, ptr %21, align 4, !tbaa !57
  %58 = sdiv i32 %57, 2
  %59 = trunc i32 %58 to i8
  %60 = load ptr, ptr %12, align 8, !tbaa !3
  store i8 %59, ptr %60, align 1, !tbaa !86
  %61 = load i32, ptr %22, align 4, !tbaa !57
  %62 = mul nsw i32 255, %61
  %63 = load ptr, ptr %12, align 8, !tbaa !3
  %64 = load i8, ptr %63, align 1, !tbaa !86
  %65 = zext i8 %64 to i32
  %66 = icmp slt i32 %65, 128
  br i1 %66, label %67, label %69

67:                                               ; preds = %50
  %68 = load i32, ptr %21, align 4, !tbaa !57
  br label %72

69:                                               ; preds = %50
  %70 = load i32, ptr %21, align 4, !tbaa !57
  %71 = sub nsw i32 512, %70
  br label %72

72:                                               ; preds = %69, %67
  %73 = phi i32 [ %68, %67 ], [ %71, %69 ]
  %74 = sdiv i32 %62, %73
  %75 = trunc i32 %74 to i8
  %76 = load ptr, ptr %11, align 8, !tbaa !3
  store i8 %75, ptr %76, align 1, !tbaa !86
  call void @llvm.lifetime.start.p0(i64 4, ptr %23) #3
  %77 = load i8, ptr %7, align 1, !tbaa !86
  %78 = zext i8 %77 to i32
  %79 = load i32, ptr %13, align 4, !tbaa !57
  %80 = icmp eq i32 %78, %79
  br i1 %80, label %81, label %90

81:                                               ; preds = %72
  %82 = load i8, ptr %8, align 1, !tbaa !86
  %83 = zext i8 %82 to i32
  %84 = load i8, ptr %9, align 1, !tbaa !86
  %85 = zext i8 %84 to i32
  %86 = sub nsw i32 %83, %85
  %87 = mul nsw i32 255, %86
  %88 = load i32, ptr %22, align 4, !tbaa !57
  %89 = sdiv i32 %87, %88
  br label %117

90:                                               ; preds = %72
  %91 = load i8, ptr %8, align 1, !tbaa !86
  %92 = zext i8 %91 to i32
  %93 = load i32, ptr %13, align 4, !tbaa !57
  %94 = icmp eq i32 %92, %93
  br i1 %94, label %95, label %105

95:                                               ; preds = %90
  %96 = load i8, ptr %9, align 1, !tbaa !86
  %97 = zext i8 %96 to i32
  %98 = load i8, ptr %7, align 1, !tbaa !86
  %99 = zext i8 %98 to i32
  %100 = sub nsw i32 %97, %99
  %101 = mul nsw i32 255, %100
  %102 = load i32, ptr %22, align 4, !tbaa !57
  %103 = sdiv i32 %101, %102
  %104 = add nsw i32 512, %103
  br label %115

105:                                              ; preds = %90
  %106 = load i8, ptr %7, align 1, !tbaa !86
  %107 = zext i8 %106 to i32
  %108 = load i8, ptr %8, align 1, !tbaa !86
  %109 = zext i8 %108 to i32
  %110 = sub nsw i32 %107, %109
  %111 = mul nsw i32 255, %110
  %112 = load i32, ptr %22, align 4, !tbaa !57
  %113 = sdiv i32 %111, %112
  %114 = add nsw i32 1024, %113
  br label %115

115:                                              ; preds = %105, %95
  %116 = phi i32 [ %104, %95 ], [ %114, %105 ]
  br label %117

117:                                              ; preds = %115, %81
  %118 = phi i32 [ %89, %81 ], [ %116, %115 ]
  store i32 %118, ptr %23, align 4, !tbaa !57
  %119 = load i32, ptr %23, align 4, !tbaa !57
  %120 = sdiv i32 %119, 6
  %121 = and i32 %120, 255
  %122 = trunc i32 %121 to i8
  %123 = load ptr, ptr %10, align 8, !tbaa !3
  store i8 %122, ptr %123, align 1, !tbaa !86
  call void @llvm.lifetime.end.p0(i64 4, ptr %23) #3
  call void @llvm.lifetime.end.p0(i64 4, ptr %22) #3
  call void @llvm.lifetime.end.p0(i64 4, ptr %21) #3
  br label %124

124:                                              ; preds = %117, %45
  call void @llvm.lifetime.end.p0(i64 4, ptr %17) #3
  call void @llvm.lifetime.end.p0(i64 4, ptr %13) #3
  ret void
}

; Function Attrs: inlinehint mustprogress nounwind uwtable
define linkonce_odr noundef nonnull align 4 dereferenceable(4) ptr @_ZSt3minIiERKT_S2_S2_(ptr noundef nonnull align 4 dereferenceable(4) %0, ptr noundef nonnull align 4 dereferenceable(4) %1) #8 comdat {
  %3 = alloca ptr, align 8
  %4 = alloca ptr, align 8
  %5 = alloca ptr, align 8
  store ptr %0, ptr %4, align 8, !tbaa !87
  store ptr %1, ptr %5, align 8, !tbaa !87
  %6 = load ptr, ptr %5, align 8, !tbaa !87
  %7 = load i32, ptr %6, align 4, !tbaa !57
  %8 = load ptr, ptr %4, align 8, !tbaa !87
  %9 = load i32, ptr %8, align 4, !tbaa !57
  %10 = icmp slt i32 %7, %9
  br i1 %10, label %11, label %13

11:                                               ; preds = %2
  %12 = load ptr, ptr %5, align 8, !tbaa !87
  store ptr %12, ptr %3, align 8
  br label %15

13:                                               ; preds = %2
  %14 = load ptr, ptr %4, align 8, !tbaa !87
  store ptr %14, ptr %3, align 8
  br label %15

15:                                               ; preds = %13, %11
  %16 = load ptr, ptr %3, align 8
  ret ptr %16
}

; Function Attrs: inlinehint mustprogress nounwind uwtable
define linkonce_odr noundef nonnull align 4 dereferenceable(4) ptr @_ZSt3maxIiERKT_S2_S2_(ptr noundef nonnull align 4 dereferenceable(4) %0, ptr noundef nonnull align 4 dereferenceable(4) %1) #8 comdat {
  %3 = alloca ptr, align 8
  %4 = alloca ptr, align 8
  %5 = alloca ptr, align 8
  store ptr %0, ptr %4, align 8, !tbaa !87
  store ptr %1, ptr %5, align 8, !tbaa !87
  %6 = load ptr, ptr %4, align 8, !tbaa !87
  %7 = load i32, ptr %6, align 4, !tbaa !57
  %8 = load ptr, ptr %5, align 8, !tbaa !87
  %9 = load i32, ptr %8, align 4, !tbaa !57
  %10 = icmp slt i32 %7, %9
  br i1 %10, label %11, label %13

11:                                               ; preds = %2
  %12 = load ptr, ptr %5, align 8, !tbaa !87
  store ptr %12, ptr %3, align 8
  br label %15

13:                                               ; preds = %2
  %14 = load ptr, ptr %4, align 8, !tbaa !87
  store ptr %14, ptr %3, align 8
  br label %15

15:                                               ; preds = %13, %11
  %16 = load ptr, ptr %3, align 8
  ret ptr %16
}

; Function Attrs: mustprogress uwtable
define void @_Z8RGBtoHCThhhPhS_S_(i8 noundef zeroext %0, i8 noundef zeroext %1, i8 noundef zeroext %2, ptr noundef %3, ptr noundef %4, ptr noundef %5) #4 {
  %7 = alloca i8, align 1
  %8 = alloca i8, align 1
  %9 = alloca i8, align 1
  %10 = alloca ptr, align 8
  %11 = alloca ptr, align 8
  %12 = alloca ptr, align 8
  %13 = alloca i32, align 4
  %14 = alloca i32, align 4
  %15 = alloca i32, align 4
  %16 = alloca i32, align 4
  %17 = alloca i32, align 4
  %18 = alloca i32, align 4
  %19 = alloca i32, align 4
  %20 = alloca i32, align 4
  store i8 %0, ptr %7, align 1, !tbaa !86
  store i8 %1, ptr %8, align 1, !tbaa !86
  store i8 %2, ptr %9, align 1, !tbaa !86
  store ptr %3, ptr %10, align 8, !tbaa !3
  store ptr %4, ptr %11, align 8, !tbaa !3
  store ptr %5, ptr %12, align 8, !tbaa !3
  call void @llvm.lifetime.start.p0(i64 4, ptr %13) #3
  call void @llvm.lifetime.start.p0(i64 4, ptr %14) #3
  %21 = load i8, ptr %7, align 1, !tbaa !86
  %22 = zext i8 %21 to i32
  store i32 %22, ptr %14, align 4, !tbaa !57
  call void @llvm.lifetime.start.p0(i64 4, ptr %15) #3
  %23 = load i8, ptr %8, align 1, !tbaa !86
  %24 = zext i8 %23 to i32
  store i32 %24, ptr %15, align 4, !tbaa !57
  call void @llvm.lifetime.start.p0(i64 4, ptr %16) #3
  %25 = load i8, ptr %9, align 1, !tbaa !86
  %26 = zext i8 %25 to i32
  store i32 %26, ptr %16, align 4, !tbaa !57
  %27 = call noundef nonnull align 4 dereferenceable(4) ptr @_ZSt3maxIiERKT_S2_S2_(ptr noundef nonnull align 4 dereferenceable(4) %15, ptr noundef nonnull align 4 dereferenceable(4) %16)
  %28 = call noundef nonnull align 4 dereferenceable(4) ptr @_ZSt3maxIiERKT_S2_S2_(ptr noundef nonnull align 4 dereferenceable(4) %14, ptr noundef nonnull align 4 dereferenceable(4) %27)
  %29 = load i32, ptr %28, align 4, !tbaa !57
  call void @llvm.lifetime.end.p0(i64 4, ptr %16) #3
  call void @llvm.lifetime.end.p0(i64 4, ptr %15) #3
  call void @llvm.lifetime.end.p0(i64 4, ptr %14) #3
  store i32 %29, ptr %13, align 4, !tbaa !57
  call void @llvm.lifetime.start.p0(i64 4, ptr %17) #3
  call void @llvm.lifetime.start.p0(i64 4, ptr %18) #3
  %30 = load i8, ptr %7, align 1, !tbaa !86
  %31 = zext i8 %30 to i32
  store i32 %31, ptr %18, align 4, !tbaa !57
  call void @llvm.lifetime.start.p0(i64 4, ptr %19) #3
  %32 = load i8, ptr %8, align 1, !tbaa !86
  %33 = zext i8 %32 to i32
  store i32 %33, ptr %19, align 4, !tbaa !57
  call void @llvm.lifetime.start.p0(i64 4, ptr %20) #3
  %34 = load i8, ptr %9, align 1, !tbaa !86
  %35 = zext i8 %34 to i32
  store i32 %35, ptr %20, align 4, !tbaa !57
  %36 = call noundef nonnull align 4 dereferenceable(4) ptr @_ZSt3minIiERKT_S2_S2_(ptr noundef nonnull align 4 dereferenceable(4) %19, ptr noundef nonnull align 4 dereferenceable(4) %20)
  %37 = call noundef nonnull align 4 dereferenceable(4) ptr @_ZSt3minIiERKT_S2_S2_(ptr noundef nonnull align 4 dereferenceable(4) %18, ptr noundef nonnull align 4 dereferenceable(4) %36)
  %38 = load i32, ptr %37, align 4, !tbaa !57
  call void @llvm.lifetime.end.p0(i64 4, ptr %20) #3
  call void @llvm.lifetime.end.p0(i64 4, ptr %19) #3
  call void @llvm.lifetime.end.p0(i64 4, ptr %18) #3
  store i32 %38, ptr %17, align 4, !tbaa !57
  %39 = load i8, ptr %7, align 1, !tbaa !86
  %40 = load i8, ptr %8, align 1, !tbaa !86
  %41 = load i8, ptr %9, align 1, !tbaa !86
  %42 = load ptr, ptr %10, align 8, !tbaa !3
  %43 = load ptr, ptr %11, align 8, !tbaa !3
  %44 = load ptr, ptr %12, align 8, !tbaa !3
  call void @_Z8RGBtoHSLhhhPhS_S_(i8 noundef zeroext %39, i8 noundef zeroext %40, i8 noundef zeroext %41, ptr noundef %42, ptr noundef %43, ptr noundef %44)
  %45 = load i32, ptr %13, align 4, !tbaa !57
  %46 = load i32, ptr %17, align 4, !tbaa !57
  %47 = sub nsw i32 %45, %46
  %48 = trunc i32 %47 to i8
  %49 = load ptr, ptr %11, align 8, !tbaa !3
  store i8 %48, ptr %49, align 1, !tbaa !86
  %50 = load ptr, ptr %11, align 8, !tbaa !3
  %51 = load i8, ptr %50, align 1, !tbaa !86
  %52 = zext i8 %51 to i32
  %53 = icmp eq i32 %52, 255
  br i1 %53, label %54, label %55

54:                                               ; preds = %6
  br label %63

55:                                               ; preds = %6
  %56 = load i32, ptr %17, align 4, !tbaa !57
  %57 = mul nsw i32 255, %56
  %58 = load i32, ptr %17, align 4, !tbaa !57
  %59 = add nsw i32 255, %58
  %60 = load i32, ptr %13, align 4, !tbaa !57
  %61 = sub nsw i32 %59, %60
  %62 = sdiv i32 %57, %61
  br label %63

63:                                               ; preds = %55, %54
  %64 = phi i32 [ 0, %54 ], [ %62, %55 ]
  %65 = trunc i32 %64 to i8
  %66 = load ptr, ptr %12, align 8, !tbaa !3
  store i8 %65, ptr %66, align 1, !tbaa !86
  call void @llvm.lifetime.end.p0(i64 4, ptr %17) #3
  call void @llvm.lifetime.end.p0(i64 4, ptr %13) #3
  ret void
}