; Function Attrs: mustprogress nofree norecurse nosync nounwind willreturn memory(argmem: write) uwtable
define void @_Z8RGBtoHCThhhPhS_S_(i8 noundef zeroext %0, i8 noundef zeroext %1, i8 noundef zeroext %2, ptr noundef writeonly captures(none) initializes((0, 1)) %3, ptr noundef writeonly captures(none) initializes((0, 1)) %4, ptr noundef writeonly captures(none) initializes((0, 1)) %5) local_unnamed_addr #7 {
  %7 = zext i8 %0 to i32
  %8 = zext i8 %1 to i32
  %9 = zext i8 %2 to i32
  %10 = tail call i8 @llvm.umax.i8(i8 %1, i8 %2)
  %11 = tail call i8 @llvm.umax.i8(i8 %0, i8 %10)
  %.sroa.speculated29 = zext i8 %11 to i32
  %12 = tail call i8 @llvm.umin.i8(i8 %2, i8 %1)
  %13 = tail call i8 @llvm.umin.i8(i8 %12, i8 %0)
  %.sroa.speculated = zext i8 %13 to i32
  %14 = icmp eq i8 %13, %11
  br i1 %14, label %15, label %16

15:                                               ; preds = %6
  store i8 0, ptr %3, align 1, !tbaa !32
  %.pre = sub nsw i32 %.sroa.speculated29, %.sroa.speculated
  br label %_Z8RGBtoHSLhhhPhS_S_.exit

16:                                               ; preds = %6
  %17 = sub nsw i32 %.sroa.speculated29, %.sroa.speculated
  %.not.i = icmp ult i8 %0, %10
  br i1 %.not.i, label %22, label %18

18:                                               ; preds = %16
  %19 = sub nsw i32 %8, %9
  %20 = mul nsw i32 %19, 255
  %21 = sdiv i32 %20, %17
  br label %34

22:                                               ; preds = %16
  %23 = icmp eq i8 %11, %1
  br i1 %23, label %24, label %29

24:                                               ; preds = %22
  %25 = sub nsw i32 %9, %7
  %26 = mul nsw i32 %25, 255
  %27 = sdiv i32 %26, %17
  %28 = add nsw i32 %27, 512
  br label %34

29:                                               ; preds = %22
  %30 = sub nsw i32 %7, %8
  %31 = mul nsw i32 %30, 255
  %32 = sdiv i32 %31, %17
  %33 = add nsw i32 %32, 1024
  br label %34

34:                                               ; preds = %29, %24, %18
  %35 = phi i32 [ %21, %18 ], [ %28, %24 ], [ %33, %29 ]
  %36 = sdiv i32 %35, 6
  %37 = trunc i32 %36 to i8
  store i8 %37, ptr %3, align 1, !tbaa !32
  br label %_Z8RGBtoHSLhhhPhS_S_.exit

_Z8RGBtoHSLhhhPhS_S_.exit:                        ; preds = %15, %34
  %.pre-phi = phi i32 [ %.pre, %15 ], [ %17, %34 ]
  %38 = trunc i32 %.pre-phi to i8
  store i8 %38, ptr %4, align 1, !tbaa !32
  %39 = and i32 %.pre-phi, 255
  %40 = icmp eq i32 %39, 255
  br i1 %40, label %47, label %41

41:                                               ; preds = %_Z8RGBtoHSLhhhPhS_S_.exit
  %42 = add nuw nsw i32 %.sroa.speculated, 255
  %43 = sub nuw nsw i32 %42, %.sroa.speculated29
  %44 = zext i8 %13 to i16
  %.lhs.trunc = mul nuw i16 %44, 255
  %.rhs.trunc = trunc nuw nsw i32 %43 to i16
  %45 = udiv i16 %.lhs.trunc, %.rhs.trunc
  %46 = trunc i16 %45 to i8
  br label %47

47:                                               ; preds = %_Z8RGBtoHSLhhhPhS_S_.exit, %41
  %48 = phi i8 [ %46, %41 ], [ 0, %_Z8RGBtoHSLhhhPhS_S_.exit ]
  store i8 %48, ptr %5, align 1, !tbaa !32
  ret void
}